; Function Attrs: mustprogress uwtable
define noundef i32 @_ZN6colvar8dihedral4initERKNSt7__cxx1112basic_stringIcSt11char_traitsIcESaIcEEE(ptr noundef nonnull align 8 dereferenceable(1713) %0, ptr noundef nonnull align 8 dereferenceable(32) %1) unnamed_addr #2 align 2 {
  %3 = tail call noundef i32 @_ZN6colvar3cvc4initERKNSt7__cxx1112basic_stringIcSt11char_traitsIcESaIcEEE(ptr noundef nonnull align 8 dereferenceable(1608) %0, ptr noundef nonnull align 8 dereferenceable(32) %1)
  %4 = tail call noundef ptr @_ZN6colvar3cvc11parse_groupERKNSt7__cxx1112basic_stringIcSt11char_traitsIcESaIcEEEPKcb(ptr noundef nonnull align 8 dereferenceable(1608) %0, ptr noundef nonnull align 8 dereferenceable(32) %1, ptr noundef nonnull @.str.2, i1 noundef zeroext false)
  %5 = getelementptr inbounds nuw i8, ptr %0, i64 1608
  store ptr %4, ptr %5, align 8, !tbaa !180
  %6 = tail call noundef ptr @_ZN6colvar3cvc11parse_groupERKNSt7__cxx1112basic_stringIcSt11char_traitsIcESaIcEEEPKcb(ptr noundef nonnull align 8 dereferenceable(1608) %0, ptr noundef nonnull align 8 dereferenceable(32) %1, ptr noundef nonnull @.str.3, i1 noundef zeroext false)
  %7 = getelementptr inbounds nuw i8, ptr %0, i64 1616
  store ptr %6, ptr %7, align 8, !tbaa !182
  %8 = tail call noundef ptr @_ZN6colvar3cvc11parse_groupERKNSt7__cxx1112basic_stringIcSt11char_traitsIcESaIcEEEPKcb(ptr noundef nonnull align 8 dereferenceable(1608) %0, ptr noundef nonnull align 8 dereferenceable(32) %1, ptr noundef nonnull @.str.4, i1 noundef zeroext false)
  %9 = getelementptr inbounds nuw i8, ptr %0, i64 1624
  store ptr %8, ptr %9, align 8, !tbaa !183
  %10 = tail call noundef ptr @_ZN6colvar3cvc11parse_groupERKNSt7__cxx1112basic_stringIcSt11char_traitsIcESaIcEEEPKcb(ptr noundef nonnull align 8 dereferenceable(1608) %0, ptr noundef nonnull align 8 dereferenceable(32) %1, ptr noundef nonnull @.str.12, i1 noundef zeroext false)
  %11 = getelementptr inbounds nuw i8, ptr %0, i64 1632
  store ptr %10, ptr %11, align 8, !tbaa !184
  %12 = load ptr, ptr %0, align 8, !tbaa !85
  %13 = getelementptr inbounds nuw i8, ptr %12, i64 208
  %14 = load ptr, ptr %13, align 8
  %15 = tail call noundef i32 %14(ptr noundef nonnull align 8 dereferenceable(1608) %0, ptr noundef nonnull align 8 dereferenceable(32) %1)
  %16 = or i32 %15, %3
  ret i32 %16
}